; Function Attrs: mustprogress nofree norecurse nosync nounwind willreturn memory(read, argmem: readwrite, inaccessiblemem: none) uwtable
define hidden void @_ZN5osgeo4proj3crs13ParametricCRSC2ERKN7dropbox6oxygen2nnISt10shared_ptrINS0_5datum15ParametricDatumEEEERKNS5_IS6_INS0_2cs12ParametricCSEEEE(ptr nocapture noundef nonnull align 8 dereferenceable(16) %0, ptr nocapture noundef readonly %1, ptr nocapture noundef nonnull readnone align 8 dereferenceable(16) %2, ptr nocapture noundef nonnull readnone align 8 dereferenceable(16) %3) unnamed_addr #10 align 2 personality ptr @__gxx_personality_v0 {
  %5 = load ptr, ptr %1, align 8
  store ptr %5, ptr %0, align 8
  %6 = getelementptr inbounds i8, ptr %1, i64 8
  %7 = load ptr, ptr %6, align 8
  %8 = getelementptr i8, ptr %5, i64 -24
  %9 = load i64, ptr %8, align 8
  %10 = getelementptr inbounds i8, ptr %0, i64 %9
  store ptr %7, ptr %10, align 8
  %11 = getelementptr inbounds i8, ptr %1, i64 16
  %12 = load ptr, ptr %11, align 8
  %13 = load ptr, ptr %0, align 8
  %14 = getelementptr i8, ptr %13, i64 -24
  %15 = load i64, ptr %14, align 8
  %16 = getelementptr i8, ptr %0, i64 %15
  %17 = getelementptr i8, ptr %16, i64 16
  store ptr %12, ptr %17, align 8
  %18 = getelementptr inbounds i8, ptr %1, i64 24
  %19 = load ptr, ptr %18, align 8
  %20 = load ptr, ptr %0, align 8
  %21 = getelementptr i8, ptr %20, i64 -24
  %22 = load i64, ptr %21, align 8
  %23 = getelementptr i8, ptr %0, i64 %22
  %24 = getelementptr i8, ptr %23, i64 24
  store ptr %19, ptr %24, align 8
  %25 = getelementptr inbounds i8, ptr %1, i64 32
  %26 = load ptr, ptr %25, align 8
  %27 = load ptr, ptr %0, align 8
  %28 = getelementptr i8, ptr %27, i64 -24
  %29 = load i64, ptr %28, align 8
  %30 = getelementptr i8, ptr %0, i64 %29
  %31 = getelementptr i8, ptr %30, i64 48
  store ptr %26, ptr %31, align 8
  %32 = getelementptr inbounds i8, ptr %0, i64 8
  store ptr null, ptr %32, align 8
  ret void
}